; Function Attrs: nofree norecurse nosync nounwind memory(readwrite, inaccessiblemem: none) uwtable
define void @If_ManCleanCutData(ptr noundef readonly captures(none) %0) local_unnamed_addr #0 {
  %2 = getelementptr inbounds nuw i8, ptr %0, i64 40
  %3 = load ptr, ptr %2, align 8
  %4 = getelementptr i8, ptr %3, i64 4
  %.val6 = load i32, ptr %4, align 4
  %5 = icmp sgt i32 %.val6, 0
  br i1 %5, label %.lr.ph, label %.critedge

.lr.ph:                                           ; preds = %1, %.lr.ph
  %indvars.iv = phi i64 [ %indvars.iv.next, %.lr.ph ], [ 0, %1 ]
  %6 = phi ptr [ %11, %.lr.ph ], [ %3, %1 ]
  %7 = getelementptr i8, ptr %6, i64 8
  %.val5 = load ptr, ptr %7, align 8
  %8 = getelementptr inbounds nuw ptr, ptr %.val5, i64 %indvars.iv
  %9 = load ptr, ptr %8, align 8
  %10 = getelementptr inbounds nuw i8, ptr %9, i64 80
  store ptr null, ptr %10, align 8
  %indvars.iv.next = add nuw nsw i64 %indvars.iv, 1
  %11 = load ptr, ptr %2, align 8
  %12 = getelementptr i8, ptr %11, i64 4
  %.val = load i32, ptr %12, align 4
  %13 = sext i32 %.val to i64
  %14 = icmp slt i64 %indvars.iv.next, %13
  br i1 %14, label %.lr.ph, label %.critedge, !llvm.loop !6

.critedge:                                        ; preds = %.lr.ph, %1
  ret void
}